target datalayout = "e-m:e-p270:32:32-p271:32:32-p272:64:64-i64:64-i128:128-f80:128-n8:16:32:64-S128"
target triple = "x86_64-pc-linux-gnu"

%struct.HTTPAuthState = type { i32, [200 x i8], %struct.DigestParams, i32 }
%struct.DigestParams = type { [300 x i8], [10 x i8], [30 x i8], [300 x i8], [10 x i8], i32 }

@.str.8 = private unnamed_addr constant [7 x i8] c"realm=\00", align 1

; Function Attrs: nounwind uwtable
define internal void @handle_basic_params(ptr noundef %0, ptr noundef %1, i32 noundef %2, ptr noundef %3, ptr noundef %4) #0 {
  %6 = alloca ptr, align 8
  %7 = alloca ptr, align 8
  %8 = alloca i32, align 4
  %9 = alloca ptr, align 8
  %10 = alloca ptr, align 8
  store ptr %0, ptr %6, align 8, !tbaa !4
  store ptr %1, ptr %7, align 8, !tbaa !9
  store i32 %2, ptr %8, align 4, !tbaa !17
  store ptr %3, ptr %9, align 8, !tbaa !18
  store ptr %4, ptr %10, align 8, !tbaa !21
  %11 = load ptr, ptr %7, align 8, !tbaa !9
  %12 = load i32, ptr %8, align 4, !tbaa !17
  %13 = sext i32 %12 to i64
  %14 = call i32 @strncmp(ptr noundef %11, ptr noundef @.str.8, i64 noundef %13) #9
  %15 = icmp ne i32 %14, 0
  br i1 %15, label %22, label %16

16:                                               ; preds = %5
  %17 = load ptr, ptr %6, align 8, !tbaa !4
  %18 = getelementptr inbounds nuw %struct.HTTPAuthState, ptr %17, i32 0, i32 1
  %19 = getelementptr inbounds [200 x i8], ptr %18, i64 0, i64 0
  %20 = load ptr, ptr %9, align 8, !tbaa !18
  store ptr %19, ptr %20, align 8, !tbaa !9
  %21 = load ptr, ptr %10, align 8, !tbaa !21
  store i32 200, ptr %21, align 4, !tbaa !17
  br label %22

22:                                               ; preds = %16, %5
  ret void
}